target datalayout = "e-m:e-p270:32:32-p271:32:32-p272:64:64-i64:64-i128:128-f80:128-n8:16:32:64-S128"
target triple = "x86_64-unknown-linux-gnu"

%"struct.url::URLComponentSource" = type { ptr, ptr, ptr, ptr, ptr, ptr, ptr, ptr }
%"struct.url::Component" = type { i32, i32 }
%"struct.url::Parsed" = type { %"struct.url::Component", %"struct.url::Component", %"struct.url::Component", %"struct.url::Component", %"struct.url::Component", %"struct.url::Component", %"struct.url::Component", %"struct.url::Component", ptr }
%"class.url::RawCanonOutput" = type { %"class.url::RawCanonOutputT" }
%"class.url::RawCanonOutputT" = type { %"class.url::CanonOutputT", [1024 x i8] }
%"class.url::CanonOutputT" = type { ptr, ptr, i32, i32 }

@_ZTVN3url12CanonOutputTIcEE = linkonce_odr dso_local unnamed_addr constant { [5 x ptr] } { [5 x ptr] [ptr null, ptr @_ZTIN3url12CanonOutputTIcEE, ptr @_ZN3url12CanonOutputTIcED2Ev, ptr @_ZN3url12CanonOutputTIcED0Ev, ptr @__cxa_pure_virtual] }, comdat, align 8

; Function Attrs: mustprogress nounwind uwtable
define linkonce_odr dso_local void @_ZN3url12CanonOutputTIcED2Ev(ptr noundef nonnull align 8 dereferenceable(24) %this) unnamed_addr #1 comdat align 2 {
entry:
  %this.addr = alloca ptr, align 8
  store ptr %this, ptr %this.addr, align 8
  ret void
}

; Function Attrs: mustprogress nounwind uwtable
define linkonce_odr dso_local void @_ZN3url12CanonOutputTIcEC2Ev(ptr noundef nonnull align 8 dereferenceable(24) %this) unnamed_addr #1 comdat align 2 {
entry:
  %this.addr = alloca ptr, align 8
  store ptr %this, ptr %this.addr, align 8
  %this1 = load ptr, ptr %this.addr, align 8
  store ptr getelementptr inbounds ({ [5 x ptr] }, ptr @_ZTVN3url12CanonOutputTIcEE, i32 0, i32 0, i32 2), ptr %this1, align 8
  %buffer_ = getelementptr inbounds %"class.url::CanonOutputT", ptr %this1, i32 0, i32 1
  store ptr null, ptr %buffer_, align 8
  %buffer_len_ = getelementptr inbounds %"class.url::CanonOutputT", ptr %this1, i32 0, i32 2
  store i32 0, ptr %buffer_len_, align 8
  %cur_len_ = getelementptr inbounds %"class.url::CanonOutputT", ptr %this1, i32 0, i32 3
  store i32 0, ptr %cur_len_, align 4
  ret void
}

; Function Attrs: mustprogress nounwind uwtable
define linkonce_odr dso_local void @_ZN3url15RawCanonOutputTIcLi1024EED2Ev(ptr noundef nonnull align 8 dereferenceable(1048) %this) unnamed_addr #1 comdat align 2 {
entry:
  %this.addr = alloca ptr, align 8
  store ptr %this, ptr %this.addr, align 8
  %this1 = load ptr, ptr %this.addr, align 8
  store ptr getelementptr inbounds ({ [5 x ptr] }, ptr @_ZTVN3url15RawCanonOutputTIcLi1024EEE, i32 0, i32 0, i32 2), ptr %this1, align 8
  %buffer_ = getelementptr inbounds %"class.url::CanonOutputT", ptr %this1, i32 0, i32 1
  %0 = load ptr, ptr %buffer_, align 8
  %fixed_buffer_ = getelementptr inbounds %"class.url::RawCanonOutputT", ptr %this1, i32 0, i32 1
  %arraydecay = getelementptr inbounds [1024 x i8], ptr %fixed_buffer_, i64 0, i64 0
  %cmp = icmp ne ptr %0, %arraydecay
  br i1 %cmp, label %if.then, label %if.end

if.then:                                          ; preds = %entry
  %buffer_2 = getelementptr inbounds %"class.url::CanonOutputT", ptr %this1, i32 0, i32 1
  %1 = load ptr, ptr %buffer_2, align 8
  %isnull = icmp eq ptr %1, null
  br i1 %isnull, label %delete.end, label %delete.notnull

delete.notnull:                                   ; preds = %if.then
  call void @_ZdaPv(ptr noundef %1) #9
  br label %delete.end

delete.end:                                       ; preds = %delete.notnull, %if.then
  br label %if.end

if.end:                                           ; preds = %delete.end, %entry
  call void @_ZN3url12CanonOutputTIcED2Ev(ptr noundef nonnull align 8 dereferenceable(24) %this1) #8
  ret void
}

; Function Attrs: mustprogress uwtable
define linkonce_odr dso_local void @_ZN3url15RawCanonOutputTIcLi1024EEC2Ev(ptr noundef nonnull align 8 dereferenceable(1048) %this) unnamed_addr #0 comdat align 2 {
entry:
  %this.addr = alloca ptr, align 8
  store ptr %this, ptr %this.addr, align 8
  %this1 = load ptr, ptr %this.addr, align 8
  call void @_ZN3url12CanonOutputTIcEC2Ev(ptr noundef nonnull align 8 dereferenceable(24) %this1)
  store ptr getelementptr inbounds ({ [5 x ptr] }, ptr @_ZTVN3url15RawCanonOutputTIcLi1024EEE, i32 0, i32 0, i32 2), ptr %this1, align 8
  %fixed_buffer_ = getelementptr inbounds %"class.url::RawCanonOutputT", ptr %this1, i32 0, i32 1
  %arraydecay = getelementptr inbounds [1024 x i8], ptr %fixed_buffer_, i64 0, i64 0
  %buffer_ = getelementptr inbounds %"class.url::CanonOutputT", ptr %this1, i32 0, i32 1
  store ptr %arraydecay, ptr %buffer_, align 8
  %buffer_len_ = getelementptr inbounds %"class.url::CanonOutputT", ptr %this1, i32 0, i32 2
  store i32 1024, ptr %buffer_len_, align 8
  ret void
}

; Function Attrs: mustprogress nounwind uwtable
define linkonce_odr dso_local void @_ZN3url14RawCanonOutputILi1024EED2Ev(ptr noundef nonnull align 8 dereferenceable(1048) %this) unnamed_addr #1 comdat align 2 {
entry:
  %this.addr = alloca ptr, align 8
  store ptr %this, ptr %this.addr, align 8
  %this1 = load ptr, ptr %this.addr, align 8
  call void @_ZN3url15RawCanonOutputTIcLi1024EED2Ev(ptr noundef nonnull align 8 dereferenceable(1048) %this1) #8
  ret void
}

; Function Attrs: mustprogress nounwind uwtable
define linkonce_odr dso_local void @_ZN3url18URLComponentSourceIcEC2EPKc(ptr noundef nonnull align 8 dereferenceable(64) %this, ptr noundef %default_value) unnamed_addr #1 comdat align 2 {
entry:
  %this.addr = alloca ptr, align 8
  %default_value.addr = alloca ptr, align 8
  store ptr %this, ptr %this.addr, align 8
  store ptr %default_value, ptr %default_value.addr, align 8
  %this1 = load ptr, ptr %this.addr, align 8
  %scheme = getelementptr inbounds %"struct.url::URLComponentSource", ptr %this1, i32 0, i32 0
  %0 = load ptr, ptr %default_value.addr, align 8
  store ptr %0, ptr %scheme, align 8
  %username = getelementptr inbounds %"struct.url::URLComponentSource", ptr %this1, i32 0, i32 1
  %1 = load ptr, ptr %default_value.addr, align 8
  store ptr %1, ptr %username, align 8
  %password = getelementptr inbounds %"struct.url::URLComponentSource", ptr %this1, i32 0, i32 2
  %2 = load ptr, ptr %default_value.addr, align 8
  store ptr %2, ptr %password, align 8
  %host = getelementptr inbounds %"struct.url::URLComponentSource", ptr %this1, i32 0, i32 3
  %3 = load ptr, ptr %default_value.addr, align 8
  store ptr %3, ptr %host, align 8
  %port = getelementptr inbounds %"struct.url::URLComponentSource", ptr %this1, i32 0, i32 4
  %4 = load ptr, ptr %default_value.addr, align 8
  store ptr %4, ptr %port, align 8
  %path = getelementptr inbounds %"struct.url::URLComponentSource", ptr %this1, i32 0, i32 5
  %5 = load ptr, ptr %default_value.addr, align 8
  store ptr %5, ptr %path, align 8
  %query = getelementptr inbounds %"struct.url::URLComponentSource", ptr %this1, i32 0, i32 6
  %6 = load ptr, ptr %default_value.addr, align 8
  store ptr %6, ptr %query, align 8
  %ref = getelementptr inbounds %"struct.url::URLComponentSource", ptr %this1, i32 0, i32 7
  %7 = load ptr, ptr %default_value.addr, align 8
  store ptr %7, ptr %ref, align 8
  ret void
}

; Function Attrs: mustprogress uwtable
define linkonce_odr dso_local void @_ZN3url14RawCanonOutputILi1024EEC2Ev(ptr noundef nonnull align 8 dereferenceable(1048) %this) unnamed_addr #0 comdat align 2 {
entry:
  %this.addr = alloca ptr, align 8
  store ptr %this, ptr %this.addr, align 8
  %this1 = load ptr, ptr %this.addr, align 8
  call void @_ZN3url15RawCanonOutputTIcLi1024EEC2Ev(ptr noundef nonnull align 8 dereferenceable(1048) %this1)
  store ptr getelementptr inbounds ({ [5 x ptr] }, ptr @_ZTVN3url14RawCanonOutputILi1024EEE, i32 0, i32 0, i32 2), ptr %this1, align 8
  ret void
}

; Function Attrs: mustprogress uwtable
define dso_local noundef zeroext i1 @_ZN3url14ReplaceFileURLEPKcRKNS_6ParsedERKNS_12ReplacementsItEEPNS_16CharsetConverterEPNS_12CanonOutputTIcEEPS2_(ptr noundef %base, ptr noundef nonnull align 8 dereferenceable(72) %base_parsed, ptr noundef nonnull align 8 dereferenceable(136) %replacements, ptr noundef %query_converter, ptr noundef %output, ptr noundef %new_parsed) #0 personality ptr @__gxx_personality_v0 {
entry:
  %base.addr = alloca ptr, align 8
  %base_parsed.addr = alloca ptr, align 8
  %replacements.addr = alloca ptr, align 8
  %query_converter.addr = alloca ptr, align 8
  %output.addr = alloca ptr, align 8
  %new_parsed.addr = alloca ptr, align 8
  %utf8 = alloca %"class.url::RawCanonOutput", align 8
  %source = alloca %"struct.url::URLComponentSource", align 8
  %exn.slot = alloca ptr, align 8
  %ehselector.slot = alloca i32, align 4
  %parsed = alloca %"struct.url::Parsed", align 8
  store ptr %base, ptr %base.addr, align 8
  store ptr %base_parsed, ptr %base_parsed.addr, align 8
  store ptr %replacements, ptr %replacements.addr, align 8
  store ptr %query_converter, ptr %query_converter.addr, align 8
  store ptr %output, ptr %output.addr, align 8
  store ptr %new_parsed, ptr %new_parsed.addr, align 8
  call void @_ZN3url14RawCanonOutputILi1024EEC2Ev(ptr noundef nonnull align 8 dereferenceable(1048) %utf8)
  %0 = load ptr, ptr %base.addr, align 8
  invoke void @_ZN3url18URLComponentSourceIcEC2EPKc(ptr noundef nonnull align 8 dereferenceable(64) %source, ptr noundef %0)
          to label %invoke.cont unwind label %lpad

invoke.cont:                                      ; preds = %entry
  %1 = load ptr, ptr %base_parsed.addr, align 8
  invoke void @_ZN3url6ParsedC1ERKS0_(ptr noundef nonnull align 8 dereferenceable(72) %parsed, ptr noundef nonnull align 8 dereferenceable(72) %1)
          to label %invoke.cont1 unwind label %lpad

invoke.cont1:                                     ; preds = %invoke.cont
  %2 = load ptr, ptr %base.addr, align 8
  %3 = load ptr, ptr %replacements.addr, align 8
  %call = invoke noundef zeroext i1 @_ZN3url28SetupUTF16OverrideComponentsEPKcRKNS_12ReplacementsItEEPNS_12CanonOutputTIcEEPNS_18URLComponentSourceIcEEPNS_6ParsedE(ptr noundef %2, ptr noundef nonnull align 8 dereferenceable(136) %3, ptr noundef %utf8, ptr noundef %source, ptr noundef %parsed)
          to label %invoke.cont3 unwind label %lpad2

invoke.cont3:                                     ; preds = %invoke.cont1
  %4 = load ptr, ptr %query_converter.addr, align 8
  %5 = load ptr, ptr %output.addr, align 8
  %6 = load ptr, ptr %new_parsed.addr, align 8
  %call5 = invoke noundef zeroext i1 @_ZN3url12_GLOBAL__N_121DoCanonicalizeFileURLIchEEbRKNS_18URLComponentSourceIT_EERKNS_6ParsedEPNS_16CharsetConverterEPNS_12CanonOutputTIcEEPS7_(ptr noundef nonnull align 8 dereferenceable(64) %source, ptr noundef nonnull align 8 dereferenceable(72) %parsed, ptr noundef %4, ptr noundef %5, ptr noundef %6)
          to label %invoke.cont4 unwind label %lpad2

invoke.cont4:                                     ; preds = %invoke.cont3
  call void @_ZN3url6ParsedD1Ev(ptr noundef nonnull align 8 dereferenceable(72) %parsed) #8
  call void @_ZN3url14RawCanonOutputILi1024EED2Ev(ptr noundef nonnull align 8 dereferenceable(1048) %utf8) #8
  ret i1 %call5

lpad:                                             ; preds = %invoke.cont, %entry
  %7 = landingpad { ptr, i32 }
          cleanup
  %8 = extractvalue { ptr, i32 } %7, 0
  store ptr %8, ptr %exn.slot, align 8
  %9 = extractvalue { ptr, i32 } %7, 1
  store i32 %9, ptr %ehselector.slot, align 4
  br label %ehcleanup

lpad2:                                            ; preds = %invoke.cont3, %invoke.cont1
  %10 = landingpad { ptr, i32 }
          cleanup
  %11 = extractvalue { ptr, i32 } %10, 0
  store ptr %11, ptr %exn.slot, align 8
  %12 = extractvalue { ptr, i32 } %10, 1
  store i32 %12, ptr %ehselector.slot, align 4
  call void @_ZN3url6ParsedD1Ev(ptr noundef nonnull align 8 dereferenceable(72) %parsed) #8
  br label %ehcleanup

ehcleanup:                                        ; preds = %lpad2, %lpad
  call void @_ZN3url14RawCanonOutputILi1024EED2Ev(ptr noundef nonnull align 8 dereferenceable(1048) %utf8) #8
  br label %eh.resume

eh.resume:                                        ; preds = %ehcleanup
  %exn = load ptr, ptr %exn.slot, align 8
  %sel = load i32, ptr %ehselector.slot, align 4
  %lpad.val = insertvalue { ptr, i32 } poison, ptr %exn, 0
  %lpad.val6 = insertvalue { ptr, i32 } %lpad.val, i32 %sel, 1
  resume { ptr, i32 } %lpad.val6
}