; Function Attrs: mustprogress uwtable
define dso_local noundef zeroext i1 @_ZN3url14ReplaceFileURLEPKcRKNS_6ParsedERKNS_12ReplacementsItEEPNS_16CharsetConverterEPNS_12CanonOutputTIcEEPS2_(ptr noundef %base, ptr noundef nonnull align 8 dereferenceable(72) %base_parsed, ptr noundef nonnull align 8 dereferenceable(136) %replacements, ptr noundef %query_converter, ptr noundef %output, ptr noundef %new_parsed) local_unnamed_addr #0 personality ptr @__gxx_personality_v0 {
entry:
  %utf8 = alloca %"class.url::RawCanonOutput", align 8
  %source = alloca %"struct.url::URLComponentSource", align 8
  %parsed = alloca %"struct.url::Parsed", align 8
  %buffer_.i.i.i = getelementptr inbounds i8, ptr %utf8, i64 8
  %0 = getelementptr inbounds i8, ptr %utf8, i64 16
  store i64 1024, ptr %0, align 8
  %fixed_buffer_.i.i = getelementptr inbounds i8, ptr %utf8, i64 24
  store ptr %fixed_buffer_.i.i, ptr %buffer_.i.i.i, align 8
  store ptr getelementptr inbounds ({ [5 x ptr] }, ptr @_ZTVN3url14RawCanonOutputILi1024EEE, i64 0, i32 0, i64 2), ptr %utf8, align 8
  store ptr %base, ptr %source, align 8
  %username.i = getelementptr inbounds i8, ptr %source, i64 8
  store ptr %base, ptr %username.i, align 8
  %password.i = getelementptr inbounds i8, ptr %source, i64 16
  store ptr %base, ptr %password.i, align 8
  %host.i = getelementptr inbounds i8, ptr %source, i64 24
  store ptr %base, ptr %host.i, align 8
  %port.i = getelementptr inbounds i8, ptr %source, i64 32
  store ptr %base, ptr %port.i, align 8
  %path.i = getelementptr inbounds i8, ptr %source, i64 40
  store ptr %base, ptr %path.i, align 8
  %query.i = getelementptr inbounds i8, ptr %source, i64 48
  store ptr %base, ptr %query.i, align 8
  %ref.i = getelementptr inbounds i8, ptr %source, i64 56
  store ptr %base, ptr %ref.i, align 8
  invoke void @_ZN3url6ParsedC1ERKS0_(ptr noundef nonnull align 8 dereferenceable(72) %parsed, ptr noundef nonnull align 8 dereferenceable(72) %base_parsed)
          to label %invoke.cont1 unwind label %lpad

invoke.cont1:                                     ; preds = %entry
  %call = invoke noundef zeroext i1 @_ZN3url28SetupUTF16OverrideComponentsEPKcRKNS_12ReplacementsItEEPNS_12CanonOutputTIcEEPNS_18URLComponentSourceIcEEPNS_6ParsedE(ptr noundef %base, ptr noundef nonnull align 8 dereferenceable(136) %replacements, ptr noundef nonnull %utf8, ptr noundef nonnull %source, ptr noundef nonnull %parsed)
          to label %invoke.cont3 unwind label %lpad2

invoke.cont3:                                     ; preds = %invoke.cont1
  %call5 = invoke fastcc noundef zeroext i1 @_ZN3url12_GLOBAL__N_121DoCanonicalizeFileURLIchEEbRKNS_18URLComponentSourceIT_EERKNS_6ParsedEPNS_16CharsetConverterEPNS_12CanonOutputTIcEEPS7_(ptr noundef nonnull align 8 dereferenceable(64) %source, ptr noundef nonnull align 8 dereferenceable(72) %parsed, ptr noundef %query_converter, ptr noundef %output, ptr noundef %new_parsed)
          to label %invoke.cont4 unwind label %lpad2

invoke.cont4:                                     ; preds = %invoke.cont3
  call void @_ZN3url6ParsedD1Ev(ptr noundef nonnull align 8 dereferenceable(72) %parsed) #9
  store ptr getelementptr inbounds ({ [5 x ptr] }, ptr @_ZTVN3url15RawCanonOutputTIcLi1024EEE, i64 0, i32 0, i64 2), ptr %utf8, align 8
  %1 = load ptr, ptr %buffer_.i.i.i, align 8
  %cmp.not.i.i = icmp eq ptr %1, %fixed_buffer_.i.i
  %isnull.i.i = icmp eq ptr %1, null
  %or.cond.i.i = or i1 %cmp.not.i.i, %isnull.i.i
  br i1 %or.cond.i.i, label %_ZN3url14RawCanonOutputILi1024EED2Ev.exit, label %delete.notnull.i.i

delete.notnull.i.i:                               ; preds = %invoke.cont4
  call void @_ZdaPv(ptr noundef nonnull %1) #10
  br label %_ZN3url14RawCanonOutputILi1024EED2Ev.exit

_ZN3url14RawCanonOutputILi1024EED2Ev.exit:        ; preds = %invoke.cont4, %delete.notnull.i.i
  ret i1 %call5

lpad:                                             ; preds = %entry
  %2 = landingpad { ptr, i32 }
          cleanup
  br label %ehcleanup

lpad2:                                            ; preds = %invoke.cont3, %invoke.cont1
  %3 = landingpad { ptr, i32 }
          cleanup
  call void @_ZN3url6ParsedD1Ev(ptr noundef nonnull align 8 dereferenceable(72) %parsed) #9
  br label %ehcleanup

ehcleanup:                                        ; preds = %lpad2, %lpad
  %.pn = phi { ptr, i32 } [ %3, %lpad2 ], [ %2, %lpad ]
  store ptr getelementptr inbounds ({ [5 x ptr] }, ptr @_ZTVN3url15RawCanonOutputTIcLi1024EEE, i64 0, i32 0, i64 2), ptr %utf8, align 8
  %4 = load ptr, ptr %buffer_.i.i.i, align 8
  %cmp.not.i.i6 = icmp eq ptr %4, %fixed_buffer_.i.i
  %isnull.i.i7 = icmp eq ptr %4, null
  %or.cond.i.i8 = or i1 %cmp.not.i.i6, %isnull.i.i7
  br i1 %or.cond.i.i8, label %_ZN3url14RawCanonOutputILi1024EED2Ev.exit10, label %delete.notnull.i.i9

delete.notnull.i.i9:                              ; preds = %ehcleanup
  call void @_ZdaPv(ptr noundef nonnull %4) #10
  br label %_ZN3url14RawCanonOutputILi1024EED2Ev.exit10

_ZN3url14RawCanonOutputILi1024EED2Ev.exit10:      ; preds = %ehcleanup, %delete.notnull.i.i9
  resume { ptr, i32 } %.pn
}